target datalayout = "e-m:e-p270:32:32-p271:32:32-p272:64:64-i64:64-i128:128-f80:128-n8:16:32:64-S128"
target triple = "x86_64-pc-linux-gnu"

%struct.SpecialJoinInfo = type { i32, ptr, ptr, ptr, ptr, i32, i32, ptr, ptr, ptr, ptr, i8, i8, i8, ptr, ptr }
%struct.Node = type { i32 }

; Function Attrs: nounwind uwtable
define dso_local void @init_dummy_sjinfo(ptr noundef %0, ptr noundef %1, ptr noundef %2) #0 {
  %4 = alloca ptr, align 8
  %5 = alloca ptr, align 8
  %6 = alloca ptr, align 8
  store ptr %0, ptr %4, align 8
  store ptr %1, ptr %5, align 8
  store ptr %2, ptr %6, align 8
  %7 = load ptr, ptr %4, align 8
  %8 = getelementptr inbounds nuw %struct.SpecialJoinInfo, ptr %7, i32 0, i32 0
  store i32 319, ptr %8, align 8
  %9 = load ptr, ptr %5, align 8
  %10 = load ptr, ptr %4, align 8
  %11 = getelementptr inbounds nuw %struct.SpecialJoinInfo, ptr %10, i32 0, i32 1
  store ptr %9, ptr %11, align 8
  %12 = load ptr, ptr %6, align 8
  %13 = load ptr, ptr %4, align 8
  %14 = getelementptr inbounds nuw %struct.SpecialJoinInfo, ptr %13, i32 0, i32 2
  store ptr %12, ptr %14, align 8
  %15 = load ptr, ptr %5, align 8
  %16 = load ptr, ptr %4, align 8
  %17 = getelementptr inbounds nuw %struct.SpecialJoinInfo, ptr %16, i32 0, i32 3
  store ptr %15, ptr %17, align 8
  %18 = load ptr, ptr %6, align 8
  %19 = load ptr, ptr %4, align 8
  %20 = getelementptr inbounds nuw %struct.SpecialJoinInfo, ptr %19, i32 0, i32 4
  store ptr %18, ptr %20, align 8
  %21 = load ptr, ptr %4, align 8
  %22 = getelementptr inbounds nuw %struct.SpecialJoinInfo, ptr %21, i32 0, i32 5
  store i32 0, ptr %22, align 8
  %23 = load ptr, ptr %4, align 8
  %24 = getelementptr inbounds nuw %struct.SpecialJoinInfo, ptr %23, i32 0, i32 6
  store i32 0, ptr %24, align 4
  %25 = load ptr, ptr %4, align 8
  %26 = getelementptr inbounds nuw %struct.SpecialJoinInfo, ptr %25, i32 0, i32 7
  store ptr null, ptr %26, align 8
  %27 = load ptr, ptr %4, align 8
  %28 = getelementptr inbounds nuw %struct.SpecialJoinInfo, ptr %27, i32 0, i32 8
  store ptr null, ptr %28, align 8
  %29 = load ptr, ptr %4, align 8
  %30 = getelementptr inbounds nuw %struct.SpecialJoinInfo, ptr %29, i32 0, i32 9
  store ptr null, ptr %30, align 8
  %31 = load ptr, ptr %4, align 8
  %32 = getelementptr inbounds nuw %struct.SpecialJoinInfo, ptr %31, i32 0, i32 10
  store ptr null, ptr %32, align 8
  %33 = load ptr, ptr %4, align 8
  %34 = getelementptr inbounds nuw %struct.SpecialJoinInfo, ptr %33, i32 0, i32 11
  store i8 0, ptr %34, align 8
  %35 = load ptr, ptr %4, align 8
  %36 = getelementptr inbounds nuw %struct.SpecialJoinInfo, ptr %35, i32 0, i32 12
  store i8 0, ptr %36, align 1
  %37 = load ptr, ptr %4, align 8
  %38 = getelementptr inbounds nuw %struct.SpecialJoinInfo, ptr %37, i32 0, i32 13
  store i8 0, ptr %38, align 2
  %39 = load ptr, ptr %4, align 8
  %40 = getelementptr inbounds nuw %struct.SpecialJoinInfo, ptr %39, i32 0, i32 14
  store ptr null, ptr %40, align 8
  %41 = load ptr, ptr %4, align 8
  %42 = getelementptr inbounds nuw %struct.SpecialJoinInfo, ptr %41, i32 0, i32 15
  store ptr null, ptr %42, align 8
  ret void
}

; Function Attrs: inlinehint nounwind uwtable
define internal ptr @newNode(i64 noundef %0, i32 noundef %1) #3 {
  %3 = alloca i64, align 8
  %4 = alloca i32, align 4
  %5 = alloca ptr, align 8
  store i64 %0, ptr %3, align 8
  store i32 %1, ptr %4, align 4
  call void @llvm.lifetime.start.p0(i64 8, ptr %5) #7
  %6 = load i64, ptr %3, align 8
  %7 = call ptr @palloc0(i64 noundef %6)
  store ptr %7, ptr %5, align 8
  %8 = load i32, ptr %4, align 4
  %9 = load ptr, ptr %5, align 8
  %10 = getelementptr inbounds nuw %struct.Node, ptr %9, i32 0, i32 0
  store i32 %8, ptr %10, align 4
  %11 = load ptr, ptr %5, align 8
  call void @llvm.lifetime.end.p0(i64 8, ptr %5) #7
  ret ptr %11
}

; Function Attrs: nounwind uwtable
define internal ptr @build_child_join_sjinfo(ptr noundef %0, ptr noundef %1, ptr noundef %2, ptr noundef %3) #0 {
  %5 = alloca ptr, align 8
  %6 = alloca ptr, align 8
  %7 = alloca ptr, align 8
  %8 = alloca ptr, align 8
  %9 = alloca ptr, align 8
  %10 = alloca ptr, align 8
  %11 = alloca ptr, align 8
  %12 = alloca i32, align 4
  %13 = alloca ptr, align 8
  %14 = alloca i32, align 4
  %15 = alloca i32, align 4
  store ptr %0, ptr %6, align 8
  store ptr %1, ptr %7, align 8
  store ptr %2, ptr %8, align 8
  store ptr %3, ptr %9, align 8
  call void @llvm.lifetime.start.p0(i64 8, ptr %10) #7
  %16 = call ptr @newNode(i64 noundef 104, i32 noundef 319)
  store ptr %16, ptr %10, align 8
  call void @llvm.lifetime.start.p0(i64 8, ptr %11) #7
  call void @llvm.lifetime.start.p0(i64 4, ptr %12) #7
  call void @llvm.lifetime.start.p0(i64 8, ptr %13) #7
  call void @llvm.lifetime.start.p0(i64 4, ptr %14) #7
  %17 = load ptr, ptr %7, align 8
  %18 = getelementptr inbounds nuw %struct.SpecialJoinInfo, ptr %17, i32 0, i32 5
  %19 = load i32, ptr %18, align 8
  %20 = icmp eq i32 %19, 0
  br i1 %20, label %21, label %26

21:                                               ; preds = %4
  %22 = load ptr, ptr %10, align 8
  %23 = load ptr, ptr %8, align 8
  %24 = load ptr, ptr %9, align 8
  call void @init_dummy_sjinfo(ptr noundef %22, ptr noundef %23, ptr noundef %24)
  %25 = load ptr, ptr %10, align 8
  store ptr %25, ptr %5, align 8
  store i32 1, ptr %15, align 4
  br label %79

26:                                               ; preds = %4
  %27 = load ptr, ptr %10, align 8
  %28 = load ptr, ptr %7, align 8
  call void @llvm.memcpy.p0.p0.i64(ptr align 8 %27, ptr align 8 %28, i64 104, i1 false)
  %29 = load ptr, ptr %6, align 8
  %30 = load ptr, ptr %8, align 8
  %31 = call ptr @find_appinfos_by_relids(ptr noundef %29, ptr noundef %30, ptr noundef %12)
  store ptr %31, ptr %11, align 8
  %32 = load ptr, ptr %6, align 8
  %33 = load ptr, ptr %9, align 8
  %34 = call ptr @find_appinfos_by_relids(ptr noundef %32, ptr noundef %33, ptr noundef %14)
  store ptr %34, ptr %13, align 8
  %35 = load ptr, ptr %10, align 8
  %36 = getelementptr inbounds nuw %struct.SpecialJoinInfo, ptr %35, i32 0, i32 1
  %37 = load ptr, ptr %36, align 8
  %38 = load i32, ptr %12, align 4
  %39 = load ptr, ptr %11, align 8
  %40 = call ptr @adjust_child_relids(ptr noundef %37, i32 noundef %38, ptr noundef %39)
  %41 = load ptr, ptr %10, align 8
  %42 = getelementptr inbounds nuw %struct.SpecialJoinInfo, ptr %41, i32 0, i32 1
  store ptr %40, ptr %42, align 8
  %43 = load ptr, ptr %10, align 8
  %44 = getelementptr inbounds nuw %struct.SpecialJoinInfo, ptr %43, i32 0, i32 2
  %45 = load ptr, ptr %44, align 8
  %46 = load i32, ptr %14, align 4
  %47 = load ptr, ptr %13, align 8
  %48 = call ptr @adjust_child_relids(ptr noundef %45, i32 noundef %46, ptr noundef %47)
  %49 = load ptr, ptr %10, align 8
  %50 = getelementptr inbounds nuw %struct.SpecialJoinInfo, ptr %49, i32 0, i32 2
  store ptr %48, ptr %50, align 8
  %51 = load ptr, ptr %10, align 8
  %52 = getelementptr inbounds nuw %struct.SpecialJoinInfo, ptr %51, i32 0, i32 3
  %53 = load ptr, ptr %52, align 8
  %54 = load i32, ptr %12, align 4
  %55 = load ptr, ptr %11, align 8
  %56 = call ptr @adjust_child_relids(ptr noundef %53, i32 noundef %54, ptr noundef %55)
  %57 = load ptr, ptr %10, align 8
  %58 = getelementptr inbounds nuw %struct.SpecialJoinInfo, ptr %57, i32 0, i32 3
  store ptr %56, ptr %58, align 8
  %59 = load ptr, ptr %10, align 8
  %60 = getelementptr inbounds nuw %struct.SpecialJoinInfo, ptr %59, i32 0, i32 4
  %61 = load ptr, ptr %60, align 8
  %62 = load i32, ptr %14, align 4
  %63 = load ptr, ptr %13, align 8
  %64 = call ptr @adjust_child_relids(ptr noundef %61, i32 noundef %62, ptr noundef %63)
  %65 = load ptr, ptr %10, align 8
  %66 = getelementptr inbounds nuw %struct.SpecialJoinInfo, ptr %65, i32 0, i32 4
  store ptr %64, ptr %66, align 8
  %67 = load ptr, ptr %6, align 8
  %68 = load ptr, ptr %10, align 8
  %69 = getelementptr inbounds nuw %struct.SpecialJoinInfo, ptr %68, i32 0, i32 15
  %70 = load ptr, ptr %69, align 8
  %71 = load i32, ptr %14, align 4
  %72 = load ptr, ptr %13, align 8
  %73 = call ptr @adjust_appendrel_attrs(ptr noundef %67, ptr noundef %70, i32 noundef %71, ptr noundef %72)
  %74 = load ptr, ptr %10, align 8
  %75 = getelementptr inbounds nuw %struct.SpecialJoinInfo, ptr %74, i32 0, i32 15
  store ptr %73, ptr %75, align 8
  %76 = load ptr, ptr %11, align 8
  call void @pfree(ptr noundef %76)
  %77 = load ptr, ptr %13, align 8
  call void @pfree(ptr noundef %77)
  %78 = load ptr, ptr %10, align 8
  store ptr %78, ptr %5, align 8
  store i32 1, ptr %15, align 4
  br label %79

79:                                               ; preds = %26, %21
  call void @llvm.lifetime.end.p0(i64 4, ptr %14) #7
  call void @llvm.lifetime.end.p0(i64 8, ptr %13) #7
  call void @llvm.lifetime.end.p0(i64 4, ptr %12) #7
  call void @llvm.lifetime.end.p0(i64 8, ptr %11) #7
  call void @llvm.lifetime.end.p0(i64 8, ptr %10) #7
  %80 = load ptr, ptr %5, align 8
  ret ptr %80
}