; Function Attrs: nounwind uwtable
define internal fastcc noundef ptr @build_child_join_sjinfo(ptr noundef %0, ptr noundef readonly captures(none) %1, ptr noundef %2, ptr noundef %3) unnamed_addr #0 {
  %5 = alloca i32, align 4
  %6 = alloca i32, align 4
  %7 = tail call noundef ptr @palloc0(i64 noundef 104) #9
  store i32 319, ptr %7, align 4
  call void @llvm.lifetime.start.p0(i64 4, ptr nonnull %5) #9
  call void @llvm.lifetime.start.p0(i64 4, ptr nonnull %6) #9
  %8 = getelementptr inbounds nuw i8, ptr %1, i64 40
  %9 = load i32, ptr %8, align 8
  %10 = icmp eq i32 %9, 0
  br i1 %10, label %11, label %18

11:                                               ; preds = %4
  store i32 319, ptr %7, align 8
  %12 = getelementptr inbounds nuw i8, ptr %7, i64 8
  store ptr %2, ptr %12, align 8
  %13 = getelementptr inbounds nuw i8, ptr %7, i64 16
  store ptr %3, ptr %13, align 8
  %14 = getelementptr inbounds nuw i8, ptr %7, i64 24
  store ptr %2, ptr %14, align 8
  %15 = getelementptr inbounds nuw i8, ptr %7, i64 32
  store ptr %3, ptr %15, align 8
  %16 = getelementptr inbounds nuw i8, ptr %7, i64 40
  %17 = getelementptr inbounds nuw i8, ptr %7, i64 88
  tail call void @llvm.memset.p0.i64(ptr noundef nonnull align 8 dereferenceable(43) %16, i8 0, i64 43, i1 false)
  tail call void @llvm.memset.p0.i64(ptr noundef nonnull align 8 dereferenceable(16) %17, i8 0, i64 16, i1 false)
  br label %41

18:                                               ; preds = %4
  tail call void @llvm.memcpy.p0.p0.i64(ptr noundef nonnull align 8 dereferenceable(104) %7, ptr noundef nonnull align 8 dereferenceable(104) %1, i64 104, i1 false)
  %19 = call ptr @find_appinfos_by_relids(ptr noundef %0, ptr noundef %2, ptr noundef nonnull %5) #9
  %20 = call ptr @find_appinfos_by_relids(ptr noundef %0, ptr noundef %3, ptr noundef nonnull %6) #9
  %21 = getelementptr inbounds nuw i8, ptr %7, i64 8
  %22 = load ptr, ptr %21, align 8
  %23 = load i32, ptr %5, align 4
  %24 = call ptr @adjust_child_relids(ptr noundef %22, i32 noundef %23, ptr noundef %19) #9
  store ptr %24, ptr %21, align 8
  %25 = getelementptr inbounds nuw i8, ptr %7, i64 16
  %26 = load ptr, ptr %25, align 8
  %27 = load i32, ptr %6, align 4
  %28 = call ptr @adjust_child_relids(ptr noundef %26, i32 noundef %27, ptr noundef %20) #9
  store ptr %28, ptr %25, align 8
  %29 = getelementptr inbounds nuw i8, ptr %7, i64 24
  %30 = load ptr, ptr %29, align 8
  %31 = load i32, ptr %5, align 4
  %32 = call ptr @adjust_child_relids(ptr noundef %30, i32 noundef %31, ptr noundef %19) #9
  store ptr %32, ptr %29, align 8
  %33 = getelementptr inbounds nuw i8, ptr %7, i64 32
  %34 = load ptr, ptr %33, align 8
  %35 = load i32, ptr %6, align 4
  %36 = call ptr @adjust_child_relids(ptr noundef %34, i32 noundef %35, ptr noundef %20) #9
  store ptr %36, ptr %33, align 8
  %37 = getelementptr inbounds nuw i8, ptr %7, i64 96
  %38 = load ptr, ptr %37, align 8
  %39 = load i32, ptr %6, align 4
  %40 = call ptr @adjust_appendrel_attrs(ptr noundef %0, ptr noundef %38, i32 noundef %39, ptr noundef %20) #9
  store ptr %40, ptr %37, align 8
  call void @pfree(ptr noundef %19) #9
  call void @pfree(ptr noundef %20) #9
  br label %41

41:                                               ; preds = %18, %11
  call void @llvm.lifetime.end.p0(i64 4, ptr nonnull %6) #9
  call void @llvm.lifetime.end.p0(i64 4, ptr nonnull %5) #9
  ret ptr %7
}